; ModuleID = '51/378.c'
source_filename = "51/378.c"
target datalayout = "e-m:e-p270:32:32-p271:32:32-p272:64:64-i64:64-f80:128-n8:16:32:64-S128"
target triple = "x86_64-pc-linux-gnu"

@.str = private unnamed_addr constant [4 x i8] c"%d\0A\00", align 1
@.str.1 = private unnamed_addr constant [3 x i8] c"NO\00", align 1
@.str.2 = private unnamed_addr constant [3 x i8] c"%d\00", align 1
@.str.3 = private unnamed_addr constant [4 x i8] c"\0A%s\00", align 1

; Function Attrs: noinline nounwind uwtable
define dso_local i32 @main() #0 {
  %1 = alloca i32, align 4
  %2 = alloca i32, align 4
  %3 = alloca [501 x i8], align 16
  %4 = alloca [501 x [6 x i8]], align 16
  %5 = alloca [501 x i32], align 16
  %6 = alloca i32, align 4
  %7 = alloca i32, align 4
  %8 = alloca i32, align 4
  %9 = alloca i32, align 4
  %10 = alloca i32, align 4
  store i32 0, i32* %1, align 4
  store i32 0, i32* %2, align 4
  %11 = bitcast [501 x i8]* %3 to i8*
  call void @llvm.memset.p0i8.i64(i8* align 16 %11, i8 0, i64 501, i1 false)
  %12 = bitcast [501 x [6 x i8]]* %4 to i8*
  call void @llvm.memset.p0i8.i64(i8* align 16 %12, i8 0, i64 3006, i1 false)
  %13 = bitcast [501 x i32]* %5 to i8*
  call void @llvm.memset.p0i8.i64(i8* align 16 %13, i8 0, i64 2004, i1 false)
  store i32 0, i32* %6, align 4
  %14 = call i32 (i8*, ...) @__isoc99_scanf(i8* getelementptr inbounds ([4 x i8], [4 x i8]* @.str, i64 0, i64 0), i32* %2)
  %15 = getelementptr inbounds [501 x i8], [501 x i8]* %3, i64 0, i64 0
  %16 = call i32 (i8*, ...) bitcast (i32 (...)* @gets to i32 (i8*, ...)*)(i8* %15)
  store i32 0, i32* %7, align 4
  store i32 0, i32* %8, align 4
  %17 = getelementptr inbounds [501 x i8], [501 x i8]* %3, i64 0, i64 0
  %18 = call i64 @strlen(i8* %17) #4
  %19 = trunc i64 %18 to i32
  store i32 %19, i32* %9, align 4
  store i32 0, i32* %10, align 4
  store i32 0, i32* %7, align 4
  br label %20

20:                                               ; preds = %115, %0
  %21 = load i32, i32* %7, align 4
  %22 = load i32, i32* %9, align 4
  %23 = load i32, i32* %2, align 4
  %24 = sub nsw i32 %22, %23
  %25 = add nsw i32 %24, 1
  %26 = icmp slt i32 %21, %25
  br i1 %26, label %27, label %118

27:                                               ; preds = %20
  store i32 0, i32* %8, align 4
  br label %28

28:                                               ; preds = %45, %27
  %29 = load i32, i32* %8, align 4
  %30 = load i32, i32* %2, align 4
  %31 = icmp slt i32 %29, %30
  br i1 %31, label %32, label %48

32:                                               ; preds = %28
  %33 = load i32, i32* %8, align 4
  %34 = load i32, i32* %7, align 4
  %35 = add nsw i32 %33, %34
  %36 = sext i32 %35 to i64
  %37 = getelementptr inbounds [501 x i8], [501 x i8]* %3, i64 0, i64 %36
  %38 = load i8, i8* %37, align 1
  %39 = load i32, i32* %6, align 4
  %40 = sext i32 %39 to i64
  %41 = getelementptr inbounds [501 x [6 x i8]], [501 x [6 x i8]]* %4, i64 0, i64 %40
  %42 = load i32, i32* %8, align 4
  %43 = sext i32 %42 to i64
  %44 = getelementptr inbounds [6 x i8], [6 x i8]* %41, i64 0, i64 %43
  store i8 %38, i8* %44, align 1
  br label %45

45:                                               ; preds = %32
  %46 = load i32, i32* %8, align 4
  %47 = add nsw i32 %46, 1
  store i32 %47, i32* %8, align 4
  br label %28

48:                                               ; preds = %28
  %49 = load i32, i32* %6, align 4
  %50 = sext i32 %49 to i64
  %51 = getelementptr inbounds [501 x [6 x i8]], [501 x [6 x i8]]* %4, i64 0, i64 %50
  %52 = load i32, i32* %2, align 4
  %53 = sext i32 %52 to i64
  %54 = getelementptr inbounds [6 x i8], [6 x i8]* %51, i64 0, i64 %53
  store i8 0, i8* %54, align 1
  %55 = load i32, i32* %6, align 4
  %56 = sub nsw i32 %55, 1
  store i32 %56, i32* %8, align 4
  br label %57

57:                                               ; preds = %90, %48
  %58 = load i32, i32* %8, align 4
  %59 = icmp sge i32 %58, 0
  br i1 %59, label %60, label %93

60:                                               ; preds = %57
  %61 = load i32, i32* %8, align 4
  %62 = sext i32 %61 to i64
  %63 = getelementptr inbounds [501 x [6 x i8]], [501 x [6 x i8]]* %4, i64 0, i64 %62
  %64 = getelementptr inbounds [6 x i8], [6 x i8]* %63, i64 0, i64 0
  %65 = load i32, i32* %6, align 4
  %66 = sext i32 %65 to i64
  %67 = getelementptr inbounds [501 x [6 x i8]], [501 x [6 x i8]]* %4, i64 0, i64 %66
  %68 = getelementptr inbounds [6 x i8], [6 x i8]* %67, i64 0, i64 0
  %69 = call i32 @strcmp(i8* %64, i8* %68) #4
  %70 = icmp eq i32 %69, 0
  br i1 %70, label %71, label %89

71:                                               ; preds = %60
  %72 = load i32, i32* %8, align 4
  %73 = sext i32 %72 to i64
  %74 = getelementptr inbounds [501 x i32], [501 x i32]* %5, i64 0, i64 %73
  %75 = load i32, i32* %74, align 4
  %76 = add nsw i32 %75, 1
  store i32 %76, i32* %74, align 4
  %77 = load i32, i32* %10, align 4
  %78 = load i32, i32* %8, align 4
  %79 = sext i32 %78 to i64
  %80 = getelementptr inbounds [501 x i32], [501 x i32]* %5, i64 0, i64 %79
  %81 = load i32, i32* %80, align 4
  %82 = icmp slt i32 %77, %81
  br i1 %82, label %83, label %88

83:                                               ; preds = %71
  %84 = load i32, i32* %8, align 4
  %85 = sext i32 %84 to i64
  %86 = getelementptr inbounds [501 x i32], [501 x i32]* %5, i64 0, i64 %85
  %87 = load i32, i32* %86, align 4
  store i32 %87, i32* %10, align 4
  br label %88

88:                                               ; preds = %83, %71
  br label %93

89:                                               ; preds = %60
  br label %90

90:                                               ; preds = %89
  %91 = load i32, i32* %8, align 4
  %92 = add nsw i32 %91, -1
  store i32 %92, i32* %8, align 4
  br label %57

93:                                               ; preds = %88, %57
  %94 = load i32, i32* %8, align 4
  %95 = icmp slt i32 %94, 0
  br i1 %95, label %96, label %114

96:                                               ; preds = %93
  %97 = load i32, i32* %6, align 4
  %98 = sext i32 %97 to i64
  %99 = getelementptr inbounds [501 x i32], [501 x i32]* %5, i64 0, i64 %98
  store i32 1, i32* %99, align 4
  %100 = load i32, i32* %10, align 4
  %101 = load i32, i32* %6, align 4
  %102 = sext i32 %101 to i64
  %103 = getelementptr inbounds [501 x i32], [501 x i32]* %5, i64 0, i64 %102
  %104 = load i32, i32* %103, align 4
  %105 = icmp slt i32 %100, %104
  br i1 %105, label %106, label %111

106:                                              ; preds = %96
  %107 = load i32, i32* %6, align 4
  %108 = sext i32 %107 to i64
  %109 = getelementptr inbounds [501 x i32], [501 x i32]* %5, i64 0, i64 %108
  %110 = load i32, i32* %109, align 4
  store i32 %110, i32* %10, align 4
  br label %111

111:                                              ; preds = %106, %96
  %112 = load i32, i32* %6, align 4
  %113 = add nsw i32 %112, 1
  store i32 %113, i32* %6, align 4
  br label %114

114:                                              ; preds = %111, %93
  br label %115

115:                                              ; preds = %114
  %116 = load i32, i32* %7, align 4
  %117 = add nsw i32 %116, 1
  store i32 %117, i32* %7, align 4
  br label %20

118:                                              ; preds = %20
  %119 = load i32, i32* %10, align 4
  %120 = icmp sle i32 %119, 1
  br i1 %120, label %121, label %123

121:                                              ; preds = %118
  %122 = call i32 (i8*, ...) @printf(i8* getelementptr inbounds ([3 x i8], [3 x i8]* @.str.1, i64 0, i64 0))
  store i32 0, i32* %1, align 4
  br label %151

123:                                              ; preds = %118
  %124 = load i32, i32* %10, align 4
  %125 = call i32 (i8*, ...) @printf(i8* getelementptr inbounds ([3 x i8], [3 x i8]* @.str.2, i64 0, i64 0), i32 %124)
  store i32 0, i32* %7, align 4
  br label %126

126:                                              ; preds = %147, %123
  %127 = load i32, i32* %7, align 4
  %128 = load i32, i32* %9, align 4
  %129 = load i32, i32* %2, align 4
  %130 = sub nsw i32 %128, %129
  %131 = add nsw i32 %130, 1
  %132 = icmp slt i32 %127, %131
  br i1 %132, label %133, label %150

133:                                              ; preds = %126
  %134 = load i32, i32* %7, align 4
  %135 = sext i32 %134 to i64
  %136 = getelementptr inbounds [501 x i32], [501 x i32]* %5, i64 0, i64 %135
  %137 = load i32, i32* %136, align 4
  %138 = load i32, i32* %10, align 4
  %139 = icmp eq i32 %137, %138
  br i1 %139, label %140, label %146

140:                                              ; preds = %133
  %141 = load i32, i32* %7, align 4
  %142 = sext i32 %141 to i64
  %143 = getelementptr inbounds [501 x [6 x i8]], [501 x [6 x i8]]* %4, i64 0, i64 %142
  %144 = getelementptr inbounds [6 x i8], [6 x i8]* %143, i64 0, i64 0
  %145 = call i32 (i8*, ...) @printf(i8* getelementptr inbounds ([4 x i8], [4 x i8]* @.str.3, i64 0, i64 0), i8* %144)
  br label %146

146:                                              ; preds = %140, %133
  br label %147

147:                                              ; preds = %146
  %148 = load i32, i32* %7, align 4
  %149 = add nsw i32 %148, 1
  store i32 %149, i32* %7, align 4
  br label %126

150:                                              ; preds = %126
  store i32 0, i32* %1, align 4
  br label %151

151:                                              ; preds = %150, %121
  %152 = load i32, i32* %1, align 4
  ret i32 %152
}

; Function Attrs: argmemonly nounwind willreturn
declare void @llvm.memset.p0i8.i64(i8* nocapture writeonly, i8, i64, i1 immarg) #1

declare dso_local i32 @__isoc99_scanf(i8*, ...) #2

declare dso_local i32 @gets(...) #2

; Function Attrs: nounwind readonly
declare dso_local i64 @strlen(i8*) #3

; Function Attrs: nounwind readonly
declare dso_local i32 @strcmp(i8*, i8*) #3

declare dso_local i32 @printf(i8*, ...) #2


!llvm.module.flags = !{!0}
!llvm.ident = !{!1}

!0 = !{i32 1, !"wchar_size", i32 4}
!1 = !{!"clang version 10.0.0-4ubuntu1 "}
